target datalayout = "e-m:e-p270:32:32-p271:32:32-p272:64:64-i64:64-i128:128-f80:128-n8:16:32:64-S128"
target triple = "x86_64-pc-linux-gnu"

; Function Attrs: noinline nounwind uwtable
define internal i32 @get_rrp(i32 noundef %0) #7 {
  %2 = alloca i32, align 4
  %3 = alloca i32, align 4
  store i32 %0, ptr %2, align 4, !tbaa !16
  call void @llvm.lifetime.start.p0(i64 4, ptr %3) #9
  %4 = load i32, ptr %2, align 4, !tbaa !16
  %5 = icmp sge i32 %4, 0
  br i1 %5, label %6, label %8

6:                                                ; preds = %1
  %7 = load i32, ptr %2, align 4, !tbaa !16
  br label %11

8:                                                ; preds = %1
  %9 = load i32, ptr %2, align 4, !tbaa !16
  %10 = sub nsw i32 0, %9
  br label %11

11:                                               ; preds = %8, %6
  %12 = phi i32 [ %7, %6 ], [ %10, %8 ]
  store i32 %12, ptr %3, align 4, !tbaa !16
  %13 = load i32, ptr %3, align 4, !tbaa !16
  %14 = icmp slt i32 %13, 11059
  br i1 %14, label %15, label %18

15:                                               ; preds = %11
  %16 = load i32, ptr %3, align 4, !tbaa !16
  %17 = shl i32 %16, 1
  store i32 %17, ptr %3, align 4, !tbaa !16
  br label %29

18:                                               ; preds = %11
  %19 = load i32, ptr %3, align 4, !tbaa !16
  %20 = icmp slt i32 %19, 20070
  br i1 %20, label %21, label %24

21:                                               ; preds = %18
  %22 = load i32, ptr %3, align 4, !tbaa !16
  %23 = add nsw i32 %22, 11059
  store i32 %23, ptr %3, align 4, !tbaa !16
  br label %28

24:                                               ; preds = %18
  %25 = load i32, ptr %3, align 4, !tbaa !16
  %26 = ashr i32 %25, 2
  %27 = add nsw i32 %26, 26112
  store i32 %27, ptr %3, align 4, !tbaa !16
  br label %28

28:                                               ; preds = %24, %21
  br label %29

29:                                               ; preds = %28, %15
  %30 = load i32, ptr %2, align 4, !tbaa !16
  %31 = icmp slt i32 %30, 0
  br i1 %31, label %32, label %35

32:                                               ; preds = %29
  %33 = load i32, ptr %3, align 4, !tbaa !16
  %34 = sub nsw i32 0, %33
  br label %37

35:                                               ; preds = %29
  %36 = load i32, ptr %3, align 4, !tbaa !16
  br label %37

37:                                               ; preds = %35, %32
  %38 = phi i32 [ %34, %32 ], [ %36, %35 ]
  call void @llvm.lifetime.end.p0(i64 4, ptr %3) #9
  ret i32 %38
}